target datalayout = "e-m:e-p270:32:32-p271:32:32-p272:64:64-i64:64-i128:128-f80:128-n8:16:32:64-S128"
target triple = "x86_64-pc-linux-gnu"

@saved_errno = internal global i32 0, align 4

; Function Attrs: nounwind uwtable
define internal i32 @restore_errno() #0 {
  %1 = alloca i32, align 4
  call void @llvm.lifetime.start.p0(i64 4, ptr %1) #10
  %2 = call ptr @__errno_location() #12
  %3 = load i32, ptr %2, align 4, !tbaa !4
  store i32 %3, ptr %1, align 4, !tbaa !4
  %4 = load i32, ptr @saved_errno, align 4, !tbaa !4
  %5 = call ptr @__errno_location() #12
  store i32 %4, ptr %5, align 4, !tbaa !4
  %6 = load i32, ptr %1, align 4, !tbaa !4
  call void @llvm.lifetime.end.p0(i64 4, ptr %1) #10
  ret i32 %6
}

; Function Attrs: nounwind uwtable
define internal void @save_errno() #0 {
  %1 = call ptr @__errno_location() #12
  %2 = load i32, ptr %1, align 4, !tbaa !4
  store i32 %2, ptr @saved_errno, align 4, !tbaa !4
  %3 = call ptr @__errno_location() #12
  store i32 0, ptr %3, align 4, !tbaa !4
  ret void
}

; Function Attrs: nounwind uwtable
define internal i64 @checked_uint8(ptr noundef %0, ptr noundef %1) #0 {
  %3 = alloca i64, align 8
  %4 = alloca ptr, align 8
  %5 = alloca ptr, align 8
  %6 = alloca ptr, align 8
  %7 = alloca ptr, align 8
  %8 = alloca ptr, align 8
  %9 = alloca i64, align 8
  %10 = alloca i32, align 4
  %11 = alloca i32, align 4
  store ptr %0, ptr %4, align 8, !tbaa !8
  store ptr %1, ptr %5, align 8, !tbaa !44
  call void @llvm.lifetime.start.p0(i64 8, ptr %6) #10
  %12 = load ptr, ptr %5, align 8, !tbaa !44
  store ptr %12, ptr %6, align 8, !tbaa !29
  call void @llvm.lifetime.start.p0(i64 8, ptr %7) #10
  %13 = load ptr, ptr %4, align 8, !tbaa !8
  %14 = load ptr, ptr %13, align 8, !tbaa !29
  store ptr %14, ptr %7, align 8, !tbaa !29
  call void @llvm.lifetime.start.p0(i64 8, ptr %8) #10
  call void @llvm.lifetime.start.p0(i64 8, ptr %9) #10
  call void @llvm.lifetime.start.p0(i64 4, ptr %10) #10
  call void @save_errno()
  %15 = load ptr, ptr %7, align 8, !tbaa !29
  %16 = call i64 @strtol(ptr noundef %15, ptr noundef %8, i32 noundef 10) #10
  store i64 %16, ptr %9, align 8, !tbaa !35
  %17 = call i32 @restore_errno()
  store i32 %17, ptr %10, align 4, !tbaa !4
  %18 = load i64, ptr %9, align 8, !tbaa !35
  %19 = icmp eq i64 %18, -9223372036854775808
  br i1 %19, label %23, label %20

20:                                               ; preds = %2
  %21 = load i64, ptr %9, align 8, !tbaa !35
  %22 = icmp eq i64 %21, 9223372036854775807
  br i1 %22, label %23, label %26

23:                                               ; preds = %20, %2
  %24 = load i32, ptr %10, align 4, !tbaa !4
  %25 = icmp eq i32 %24, 34
  br i1 %25, label %49, label %26

26:                                               ; preds = %23, %20
  %27 = load ptr, ptr %8, align 8, !tbaa !29
  %28 = load ptr, ptr %7, align 8, !tbaa !29
  %29 = icmp eq ptr %27, %28
  br i1 %29, label %49, label %30

30:                                               ; preds = %26
  %31 = call ptr @__ctype_b_loc() #12
  %32 = load ptr, ptr %31, align 8, !tbaa !52
  %33 = load ptr, ptr %8, align 8, !tbaa !29
  %34 = load i8, ptr %33, align 1, !tbaa !39
  %35 = zext i8 %34 to i32
  %36 = sext i32 %35 to i64
  %37 = getelementptr inbounds i16, ptr %32, i64 %36
  %38 = load i16, ptr %37, align 2, !tbaa !54
  %39 = zext i16 %38 to i32
  %40 = and i32 %39, 8192
  %41 = icmp ne i32 %40, 0
  br i1 %41, label %42, label %49

42:                                               ; preds = %30
  %43 = load i64, ptr %9, align 8, !tbaa !35
  %44 = load i64, ptr %9, align 8, !tbaa !35
  %45 = trunc i64 %44 to i8
  %46 = load ptr, ptr %6, align 8, !tbaa !29
  store i8 %45, ptr %46, align 1, !tbaa !39
  %47 = zext i8 %45 to i64
  %48 = icmp ne i64 %43, %47
  br i1 %48, label %49, label %50

49:                                               ; preds = %42, %30, %26, %23
  store i64 -1, ptr %3, align 8
  store i32 1, ptr %11, align 4
  br label %71

50:                                               ; preds = %42
  %51 = load ptr, ptr %8, align 8, !tbaa !29
  store ptr %51, ptr %7, align 8, !tbaa !29
  br label %52

52:                                               ; preds = %65, %50
  %53 = call ptr @__ctype_b_loc() #12
  %54 = load ptr, ptr %53, align 8, !tbaa !52
  %55 = load ptr, ptr %7, align 8, !tbaa !29
  %56 = load i8, ptr %55, align 1, !tbaa !39
  %57 = zext i8 %56 to i32
  %58 = sext i32 %57 to i64
  %59 = getelementptr inbounds i16, ptr %54, i64 %58
  %60 = load i16, ptr %59, align 2, !tbaa !54
  %61 = zext i16 %60 to i32
  %62 = and i32 %61, 8192
  %63 = icmp ne i32 %62, 0
  br i1 %63, label %64, label %68

64:                                               ; preds = %52
  br label %65

65:                                               ; preds = %64
  %66 = load ptr, ptr %7, align 8, !tbaa !29
  %67 = getelementptr inbounds nuw i8, ptr %66, i32 1
  store ptr %67, ptr %7, align 8, !tbaa !29
  br label %52, !llvm.loop !160

68:                                               ; preds = %52
  %69 = load ptr, ptr %7, align 8, !tbaa !29
  %70 = load ptr, ptr %4, align 8, !tbaa !8
  store ptr %69, ptr %70, align 8, !tbaa !29
  store i64 1, ptr %3, align 8
  store i32 1, ptr %11, align 4
  br label %71

71:                                               ; preds = %68, %49
  call void @llvm.lifetime.end.p0(i64 4, ptr %10) #10
  call void @llvm.lifetime.end.p0(i64 8, ptr %9) #10
  call void @llvm.lifetime.end.p0(i64 8, ptr %8) #10
  call void @llvm.lifetime.end.p0(i64 8, ptr %7) #10
  call void @llvm.lifetime.end.p0(i64 8, ptr %6) #10
  %72 = load i64, ptr %3, align 8
  ret i64 %72
}