; Function Attrs: nofree nounwind uwtable
define internal range(i64 -1, 2) i64 @checked_uint8(ptr noundef captures(none) %0, ptr noundef writeonly captures(none) %1) #12 {
  %3 = alloca ptr, align 8
  %4 = load ptr, ptr %0, align 8, !tbaa !11
  call void @llvm.lifetime.start.p0(i64 8, ptr nonnull %3) #15
  %5 = tail call ptr @__errno_location() #16
  %6 = load i32, ptr %5, align 4, !tbaa !13
  store i32 %6, ptr @saved_errno, align 4, !tbaa !13
  store i32 0, ptr %5, align 4, !tbaa !13
  %7 = call i64 @strtol(ptr noundef %4, ptr noundef nonnull %3, i32 noundef 10) #15
  %8 = load i32, ptr %5, align 4, !tbaa !13
  %9 = load i32, ptr @saved_errno, align 4, !tbaa !13
  store i32 %9, ptr %5, align 4, !tbaa !13
  %10 = add i64 %7, -9223372036854775807
  %or.cond = icmp ult i64 %10, 2
  %11 = icmp eq i32 %8, 34
  %or.cond3 = select i1 %or.cond, i1 %11, i1 false
  br i1 %or.cond3, label %34, label %12

12:                                               ; preds = %2
  %13 = load ptr, ptr %3, align 8, !tbaa !11
  %14 = icmp eq ptr %13, %4
  br i1 %14, label %34, label %15

15:                                               ; preds = %12
  %16 = tail call ptr @__ctype_b_loc() #16
  %17 = load ptr, ptr %16, align 8, !tbaa !26
  %18 = load i8, ptr %13, align 1, !tbaa !25
  %19 = zext i8 %18 to i64
  %20 = getelementptr inbounds nuw i16, ptr %17, i64 %19
  %21 = load i16, ptr %20, align 2, !tbaa !30
  %22 = and i16 %21, 8192
  %.not = icmp eq i16 %22, 0
  br i1 %.not, label %34, label %23

23:                                               ; preds = %15
  %24 = trunc i64 %7 to i8
  store i8 %24, ptr %1, align 1, !tbaa !25
  %.not19 = icmp ult i64 %7, 256
  br i1 %.not19, label %.preheader, label %34

.preheader:                                       ; preds = %23
  %25 = load ptr, ptr %16, align 8, !tbaa !26
  br label %26

26:                                               ; preds = %26, %.preheader
  %.017 = phi ptr [ %32, %26 ], [ %13, %.preheader ]
  %27 = load i8, ptr %.017, align 1, !tbaa !25
  %28 = zext i8 %27 to i64
  %29 = getelementptr inbounds nuw i16, ptr %25, i64 %28
  %30 = load i16, ptr %29, align 2, !tbaa !30
  %31 = and i16 %30, 8192
  %.not20 = icmp eq i16 %31, 0
  %32 = getelementptr inbounds nuw i8, ptr %.017, i64 1
  br i1 %.not20, label %33, label %26, !llvm.loop !91

33:                                               ; preds = %26
  store ptr %.017, ptr %0, align 8, !tbaa !11
  br label %34

34:                                               ; preds = %12, %15, %23, %2, %33
  %.0 = phi i64 [ 1, %33 ], [ -1, %2 ], [ -1, %23 ], [ -1, %15 ], [ -1, %12 ]
  call void @llvm.lifetime.end.p0(i64 8, ptr nonnull %3) #15
  ret i64 %.0
}